target datalayout = "e-m:e-p270:32:32-p271:32:32-p272:64:64-i64:64-i128:128-f80:128-n8:16:32:64-S128"
target triple = "x86_64-pc-linux-gnu"

%class.AdaptiveSizePolicy = type { ptr, double, i64, i64, i64, %class.GCOverheadChecker, ptr, ptr, ptr, ptr, ptr, ptr, ptr, ptr, ptr, ptr, ptr, ptr, ptr, ptr, double, double, double, i8, i32, i32, i32, i32, i8, i8, i8, i32, i32, i64, i64 }
%class.GCOverheadChecker = type { i8, i32 }

; Function Attrs: mustprogress nounwind uwtable
define linkonce_odr hidden void @_ZN18AdaptiveSizePolicy21set_decide_at_full_gcEi(ptr noundef nonnull align 8 dereferenceable(232) %0, i32 noundef %1) #1 comdat align 2 {
  %3 = alloca ptr, align 8
  %4 = alloca i32, align 4
  store ptr %0, ptr %3, align 8
  store i32 %1, ptr %4, align 4
  %5 = load ptr, ptr %3, align 8
  %6 = load i32, ptr %4, align 4
  %7 = getelementptr inbounds %class.AdaptiveSizePolicy, ptr %5, i32 0, i32 32
  store i32 %6, ptr %7, align 4
  ret void
}

; Function Attrs: mustprogress nounwind uwtable
define linkonce_odr hidden void @_ZN18AdaptiveSizePolicy26set_decrease_for_footprintEi(ptr noundef nonnull align 8 dereferenceable(232) %0, i32 noundef %1) #1 comdat align 2 {
  %3 = alloca ptr, align 8
  %4 = alloca i32, align 4
  store ptr %0, ptr %3, align 8
  store i32 %1, ptr %4, align 4
  %5 = load ptr, ptr %3, align 8
  %6 = load i32, ptr %4, align 4
  %7 = getelementptr inbounds %class.AdaptiveSizePolicy, ptr %5, i32 0, i32 31
  store i32 %6, ptr %7, align 8
  ret void
}

; Function Attrs: mustprogress nounwind uwtable
define linkonce_odr hidden void @_ZN18AdaptiveSizePolicy35set_change_young_gen_for_throughputEi(ptr noundef nonnull align 8 dereferenceable(232) %0, i32 noundef %1) #1 comdat align 2 {
  %3 = alloca ptr, align 8
  %4 = alloca i32, align 4
  store ptr %0, ptr %3, align 8
  store i32 %1, ptr %4, align 4
  %5 = load ptr, ptr %3, align 8
  %6 = load i32, ptr %4, align 4
  %7 = getelementptr inbounds %class.AdaptiveSizePolicy, ptr %5, i32 0, i32 27
  store i32 %6, ptr %7, align 8
  ret void
}

; Function Attrs: mustprogress nounwind uwtable
define linkonce_odr hidden void @_ZN18AdaptiveSizePolicy33set_change_old_gen_for_throughputEi(ptr noundef nonnull align 8 dereferenceable(232) %0, i32 noundef %1) #1 comdat align 2 {
  %3 = alloca ptr, align 8
  %4 = alloca i32, align 4
  store ptr %0, ptr %3, align 8
  store i32 %1, ptr %4, align 4
  %5 = load ptr, ptr %3, align 8
  %6 = load i32, ptr %4, align 4
  %7 = getelementptr inbounds %class.AdaptiveSizePolicy, ptr %5, i32 0, i32 26
  store i32 %6, ptr %7, align 4
  ret void
}

; Function Attrs: mustprogress nounwind uwtable
define linkonce_odr hidden void @_ZN18AdaptiveSizePolicy33set_change_old_gen_for_maj_pausesEi(ptr noundef nonnull align 8 dereferenceable(232) %0, i32 noundef %1) #1 comdat align 2 {
  %3 = alloca ptr, align 8
  %4 = alloca i32, align 4
  store ptr %0, ptr %3, align 8
  store i32 %1, ptr %4, align 4
  %5 = load ptr, ptr %3, align 8
  %6 = load i32, ptr %4, align 4
  %7 = getelementptr inbounds %class.AdaptiveSizePolicy, ptr %5, i32 0, i32 25
  store i32 %6, ptr %7, align 8
  ret void
}

; Function Attrs: mustprogress nounwind uwtable
define linkonce_odr hidden void @_ZN18AdaptiveSizePolicy35set_change_young_gen_for_min_pausesEi(ptr noundef nonnull align 8 dereferenceable(232) %0, i32 noundef %1) #1 comdat align 2 {
  %3 = alloca ptr, align 8
  %4 = alloca i32, align 4
  store ptr %0, ptr %3, align 8
  store i32 %1, ptr %4, align 4
  %5 = load ptr, ptr %3, align 8
  %6 = load i32, ptr %4, align 4
  %7 = getelementptr inbounds %class.AdaptiveSizePolicy, ptr %5, i32 0, i32 24
  store i32 %6, ptr %7, align 4
  ret void
}

; Function Attrs: mustprogress nounwind uwtable
define hidden void @_ZN18AdaptiveSizePolicy33clear_generation_free_space_flagsEv(ptr noundef nonnull align 8 dereferenceable(232) %0) unnamed_addr #1 align 2 {
  %2 = alloca ptr, align 8
  store ptr %0, ptr %2, align 8
  %3 = load ptr, ptr %2, align 8
  call void @_ZN18AdaptiveSizePolicy35set_change_young_gen_for_min_pausesEi(ptr noundef nonnull align 8 dereferenceable(232) %3, i32 noundef 0)
  call void @_ZN18AdaptiveSizePolicy33set_change_old_gen_for_maj_pausesEi(ptr noundef nonnull align 8 dereferenceable(232) %3, i32 noundef 0)
  call void @_ZN18AdaptiveSizePolicy33set_change_old_gen_for_throughputEi(ptr noundef nonnull align 8 dereferenceable(232) %3, i32 noundef 0)
  call void @_ZN18AdaptiveSizePolicy35set_change_young_gen_for_throughputEi(ptr noundef nonnull align 8 dereferenceable(232) %3, i32 noundef 0)
  call void @_ZN18AdaptiveSizePolicy26set_decrease_for_footprintEi(ptr noundef nonnull align 8 dereferenceable(232) %3, i32 noundef 0)
  call void @_ZN18AdaptiveSizePolicy21set_decide_at_full_gcEi(ptr noundef nonnull align 8 dereferenceable(232) %3, i32 noundef 0)
  ret void
}