; Function Attrs: mustprogress nofree norecurse nosync nounwind willreturn memory(argmem: write) uwtable
define hidden void @_ZN18AdaptiveSizePolicy33clear_generation_free_space_flagsEv(ptr nocapture noundef nonnull writeonly align 8 dereferenceable(232) %0) unnamed_addr #5 align 2 {
  %2 = getelementptr inbounds i8, ptr %0, i64 188
  %3 = getelementptr inbounds i8, ptr %0, i64 208
  store i32 0, ptr %3, align 8
  %4 = getelementptr inbounds i8, ptr %0, i64 212
  store i32 0, ptr %4, align 4
  tail call void @llvm.memset.p0.i64(ptr noundef nonnull align 4 dereferenceable(16) %2, i8 0, i64 16, i1 false)
  ret void
}